target datalayout = "e-m:e-p270:32:32-p271:32:32-p272:64:64-i64:64-i128:128-f80:128-n8:16:32:64-S128"
target triple = "x86_64-pc-linux-gnu"

%struct.AVFormatContext = type { ptr, ptr, ptr, ptr, ptr, i32, i32, ptr, i32, ptr, i32, ptr, ptr, i64, i64, i64, i32, i32, i32, i64, i64, ptr, i32, i32, ptr, i32, i32, i32, i32, ptr, i64, i32, i32, %struct.AVIOInterruptCB, i32, i32, i32, i32, i64, i32, i32, i32, i32, i32, i32, i32, i32, i32, i32, i32, i32, i64, i32, i32, i32, i32, i32, ptr, ptr, ptr, ptr, i32, ptr, ptr, ptr, ptr, i32, ptr, ptr, i64, ptr, ptr, ptr, i64 }
%struct.AVIOInterruptCB = type { ptr, ptr }
%struct.HLSContext = type { ptr, ptr, i32, ptr, i32, ptr, i32, ptr, i64, i32, i32, i32, i32, i64, i64, ptr, ptr, ptr, ptr, ptr, i32, i32, i32, i32, i32, i32, ptr, %struct.HLSCryptoContext }
%struct.HLSCryptoContext = type { ptr, [16 x i8], [16 x i8] }
%struct.playlist = type { [4096 x i8], %struct.FFIOContext, ptr, ptr, i32, ptr, i32, ptr, i32, ptr, ptr, i32, ptr, i32, i32, i32, i64, i64, i32, i64, i32, ptr, i32, i32, i64, i64, i32, i64, i64, ptr, ptr, i32, i32, i32, [4096 x i8], [16 x i8], i32, i64, i64, ptr, i32, ptr, i32, i32, ptr, %struct.HLSAudioSetupInfo, i64, i32, i32, i32, ptr, i32, ptr, i32 }
%struct.FFIOContext = type { %struct.AVIOContext, ptr, i32, i32, i64, i64, i64, i64, i32, i32, i32, i64 }
%struct.AVIOContext = type { ptr, ptr, i32, ptr, ptr, ptr, ptr, ptr, ptr, i64, i32, i32, i32, i32, i32, i64, ptr, ptr, ptr, ptr, i32, i32, ptr, ptr, ptr, i32, ptr, i64, i64 }
%struct.HLSAudioSetupInfo = type { i32, i32, i16, i8, i8, [10 x i8] }
%struct.segment = type { i64, i64, i64, ptr, ptr, i32, [16 x i8], ptr }

@.str.168 = private unnamed_addr constant [39 x i8] c"Failed to open segment of playlist %d\0A\00", align 1

; Function Attrs: nounwind uwtable
define internal i32 @read_from_url(ptr noundef %0, ptr noundef %1, ptr noundef %2, i32 noundef %3) #0 {
  %5 = alloca ptr, align 8
  %6 = alloca ptr, align 8
  %7 = alloca ptr, align 8
  %8 = alloca i32, align 4
  %9 = alloca i32, align 4
  store ptr %0, ptr %5, align 8, !tbaa !54
  store ptr %1, ptr %6, align 8, !tbaa !78
  store ptr %2, ptr %7, align 8, !tbaa !125
  store i32 %3, ptr %8, align 4, !tbaa !14
  call void @llvm.lifetime.start.p0(i64 4, ptr %9) #15
  %10 = load ptr, ptr %6, align 8, !tbaa !78
  %11 = getelementptr inbounds nuw %struct.segment, ptr %10, i32 0, i32 2
  %12 = load i64, ptr %11, align 8, !tbaa !200
  %13 = icmp sge i64 %12, 0
  br i1 %13, label %14, label %39

14:                                               ; preds = %4
  %15 = load i32, ptr %8, align 4, !tbaa !14
  %16 = sext i32 %15 to i64
  %17 = load ptr, ptr %6, align 8, !tbaa !78
  %18 = getelementptr inbounds nuw %struct.segment, ptr %17, i32 0, i32 2
  %19 = load i64, ptr %18, align 8, !tbaa !200
  %20 = load ptr, ptr %5, align 8, !tbaa !54
  %21 = getelementptr inbounds nuw %struct.playlist, ptr %20, i32 0, i32 27
  %22 = load i64, ptr %21, align 8, !tbaa !111
  %23 = sub nsw i64 %19, %22
  %24 = icmp sgt i64 %16, %23
  br i1 %24, label %25, label %33

25:                                               ; preds = %14
  %26 = load ptr, ptr %6, align 8, !tbaa !78
  %27 = getelementptr inbounds nuw %struct.segment, ptr %26, i32 0, i32 2
  %28 = load i64, ptr %27, align 8, !tbaa !200
  %29 = load ptr, ptr %5, align 8, !tbaa !54
  %30 = getelementptr inbounds nuw %struct.playlist, ptr %29, i32 0, i32 27
  %31 = load i64, ptr %30, align 8, !tbaa !111
  %32 = sub nsw i64 %28, %31
  br label %36

33:                                               ; preds = %14
  %34 = load i32, ptr %8, align 4, !tbaa !14
  %35 = sext i32 %34 to i64
  br label %36

36:                                               ; preds = %33, %25
  %37 = phi i64 [ %32, %25 ], [ %35, %33 ]
  %38 = trunc i64 %37 to i32
  store i32 %38, ptr %8, align 4, !tbaa !14
  br label %39

39:                                               ; preds = %36, %4
  %40 = load ptr, ptr %5, align 8, !tbaa !54
  %41 = getelementptr inbounds nuw %struct.playlist, ptr %40, i32 0, i32 3
  %42 = load ptr, ptr %41, align 8, !tbaa !107
  %43 = load ptr, ptr %7, align 8, !tbaa !125
  %44 = load i32, ptr %8, align 4, !tbaa !14
  %45 = call i32 @avio_read(ptr noundef %42, ptr noundef %43, i32 noundef %44)
  store i32 %45, ptr %9, align 4, !tbaa !14
  %46 = load i32, ptr %9, align 4, !tbaa !14
  %47 = icmp sgt i32 %46, 0
  br i1 %47, label %48, label %55

48:                                               ; preds = %39
  %49 = load i32, ptr %9, align 4, !tbaa !14
  %50 = sext i32 %49 to i64
  %51 = load ptr, ptr %5, align 8, !tbaa !54
  %52 = getelementptr inbounds nuw %struct.playlist, ptr %51, i32 0, i32 27
  %53 = load i64, ptr %52, align 8, !tbaa !111
  %54 = add nsw i64 %53, %50
  store i64 %54, ptr %52, align 8, !tbaa !111
  br label %55

55:                                               ; preds = %48, %39
  %56 = load i32, ptr %9, align 4, !tbaa !14
  call void @llvm.lifetime.end.p0(i64 4, ptr %9) #15
  ret i32 %56
}

; Function Attrs: nounwind uwtable
define internal ptr @current_segment(ptr noundef %0) #0 {
  %2 = alloca ptr, align 8
  %3 = alloca ptr, align 8
  %4 = alloca i64, align 8
  %5 = alloca i32, align 4
  store ptr %0, ptr %3, align 8, !tbaa !54
  call void @llvm.lifetime.start.p0(i64 8, ptr %4) #15
  %6 = load ptr, ptr %3, align 8, !tbaa !54
  %7 = getelementptr inbounds nuw %struct.playlist, ptr %6, i32 0, i32 24
  %8 = load i64, ptr %7, align 8, !tbaa !89
  %9 = load ptr, ptr %3, align 8, !tbaa !54
  %10 = getelementptr inbounds nuw %struct.playlist, ptr %9, i32 0, i32 17
  %11 = load i64, ptr %10, align 8, !tbaa !97
  %12 = sub nsw i64 %8, %11
  store i64 %12, ptr %4, align 8, !tbaa !35
  %13 = load i64, ptr %4, align 8, !tbaa !35
  %14 = load ptr, ptr %3, align 8, !tbaa !54
  %15 = getelementptr inbounds nuw %struct.playlist, ptr %14, i32 0, i32 20
  %16 = load i32, ptr %15, align 8, !tbaa !56
  %17 = sext i32 %16 to i64
  %18 = icmp sge i64 %13, %17
  br i1 %18, label %19, label %20

19:                                               ; preds = %1
  store ptr null, ptr %2, align 8
  store i32 1, ptr %5, align 4
  br label %27

20:                                               ; preds = %1
  %21 = load ptr, ptr %3, align 8, !tbaa !54
  %22 = getelementptr inbounds nuw %struct.playlist, ptr %21, i32 0, i32 21
  %23 = load ptr, ptr %22, align 8, !tbaa !77
  %24 = load i64, ptr %4, align 8, !tbaa !35
  %25 = getelementptr inbounds ptr, ptr %23, i64 %24
  %26 = load ptr, ptr %25, align 8, !tbaa !78
  store ptr %26, ptr %2, align 8
  store i32 1, ptr %5, align 4
  br label %27

27:                                               ; preds = %20, %19
  call void @llvm.lifetime.end.p0(i64 8, ptr %4) #15
  %28 = load ptr, ptr %2, align 8
  ret ptr %28
}

; Function Attrs: nounwind uwtable
define internal i32 @read_data_subtitle_segment(ptr noundef %0, ptr noundef %1, i32 noundef %2) #0 {
  %4 = alloca i32, align 4
  %5 = alloca ptr, align 8
  %6 = alloca ptr, align 8
  %7 = alloca i32, align 4
  %8 = alloca ptr, align 8
  %9 = alloca ptr, align 8
  %10 = alloca i32, align 4
  %11 = alloca ptr, align 8
  %12 = alloca i32, align 4
  store ptr %0, ptr %5, align 8, !tbaa !123
  store ptr %1, ptr %6, align 8, !tbaa !125
  store i32 %2, ptr %7, align 4, !tbaa !14
  call void @llvm.lifetime.start.p0(i64 8, ptr %8) #15
  %13 = load ptr, ptr %5, align 8, !tbaa !123
  store ptr %13, ptr %8, align 8, !tbaa !54
  call void @llvm.lifetime.start.p0(i64 8, ptr %9) #15
  %14 = load ptr, ptr %8, align 8, !tbaa !54
  %15 = getelementptr inbounds nuw %struct.playlist, ptr %14, i32 0, i32 7
  %16 = load ptr, ptr %15, align 8, !tbaa !96
  %17 = getelementptr inbounds nuw %struct.AVFormatContext, ptr %16, i32 0, i32 3
  %18 = load ptr, ptr %17, align 8, !tbaa !18
  store ptr %18, ptr %9, align 8, !tbaa !33
  call void @llvm.lifetime.start.p0(i64 4, ptr %10) #15
  call void @llvm.lifetime.start.p0(i64 8, ptr %11) #15
  %19 = load ptr, ptr %8, align 8, !tbaa !54
  %20 = getelementptr inbounds nuw %struct.playlist, ptr %19, i32 0, i32 22
  %21 = load i32, ptr %20, align 8, !tbaa !95
  %22 = icmp ne i32 %21, 0
  br i1 %22, label %23, label %36

23:                                               ; preds = %3
  %24 = load ptr, ptr %8, align 8, !tbaa !54
  %25 = getelementptr inbounds nuw %struct.playlist, ptr %24, i32 0, i32 24
  %26 = load i64, ptr %25, align 8, !tbaa !89
  %27 = load ptr, ptr %8, align 8, !tbaa !54
  %28 = getelementptr inbounds nuw %struct.playlist, ptr %27, i32 0, i32 17
  %29 = load i64, ptr %28, align 8, !tbaa !97
  %30 = sub nsw i64 %26, %29
  %31 = load ptr, ptr %8, align 8, !tbaa !54
  %32 = getelementptr inbounds nuw %struct.playlist, ptr %31, i32 0, i32 20
  %33 = load i32, ptr %32, align 8, !tbaa !56
  %34 = sext i32 %33 to i64
  %35 = icmp sge i64 %30, %34
  br i1 %35, label %36, label %37

36:                                               ; preds = %23, %3
  store i32 -541478725, ptr %4, align 4
  store i32 1, ptr %12, align 4
  br label %76

37:                                               ; preds = %23
  %38 = load ptr, ptr %8, align 8, !tbaa !54
  %39 = call ptr @current_segment(ptr noundef %38)
  store ptr %39, ptr %11, align 8, !tbaa !78
  br label %40

40:                                               ; preds = %37
  %41 = load ptr, ptr %8, align 8, !tbaa !54
  %42 = getelementptr inbounds nuw %struct.playlist, ptr %41, i32 0, i32 3
  %43 = load ptr, ptr %42, align 8, !tbaa !107
  %44 = icmp ne ptr %43, null
  br i1 %44, label %70, label %45

45:                                               ; preds = %40
  %46 = load ptr, ptr %9, align 8, !tbaa !33
  %47 = load ptr, ptr %8, align 8, !tbaa !54
  %48 = load ptr, ptr %11, align 8, !tbaa !78
  %49 = load ptr, ptr %8, align 8, !tbaa !54
  %50 = getelementptr inbounds nuw %struct.playlist, ptr %49, i32 0, i32 3
  %51 = call i32 @open_input(ptr noundef %46, ptr noundef %47, ptr noundef %48, ptr noundef %50)
  store i32 %51, ptr %10, align 4, !tbaa !14
  %52 = load i32, ptr %10, align 4, !tbaa !14
  %53 = icmp slt i32 %52, 0
  br i1 %53, label %54, label %69

54:                                               ; preds = %45
  %55 = load ptr, ptr %9, align 8, !tbaa !33
  %56 = getelementptr inbounds nuw %struct.HLSContext, ptr %55, i32 0, i32 15
  %57 = load ptr, ptr %56, align 8, !tbaa !44
  %58 = call i32 @ff_check_interrupt(ptr noundef %57)
  %59 = icmp ne i32 %58, 0
  br i1 %59, label %60, label %61

60:                                               ; preds = %54
  store i32 -1414092869, ptr %4, align 4
  store i32 1, ptr %12, align 4
  br label %76

61:                                               ; preds = %54
  %62 = load ptr, ptr %8, align 8, !tbaa !54
  %63 = getelementptr inbounds nuw %struct.playlist, ptr %62, i32 0, i32 7
  %64 = load ptr, ptr %63, align 8, !tbaa !96
  %65 = load ptr, ptr %8, align 8, !tbaa !54
  %66 = getelementptr inbounds nuw %struct.playlist, ptr %65, i32 0, i32 8
  %67 = load i32, ptr %66, align 8, !tbaa !94
  call void (ptr, i32, ptr, ...) @av_log(ptr noundef %64, i32 noundef 24, ptr noundef @.str.168, i32 noundef %67)
  %68 = load i32, ptr %10, align 4, !tbaa !14
  store i32 %68, ptr %4, align 4
  store i32 1, ptr %12, align 4
  br label %76

69:                                               ; preds = %45
  br label %70

70:                                               ; preds = %69, %40
  %71 = load ptr, ptr %8, align 8, !tbaa !54
  %72 = load ptr, ptr %11, align 8, !tbaa !78
  %73 = load ptr, ptr %6, align 8, !tbaa !125
  %74 = load i32, ptr %7, align 4, !tbaa !14
  %75 = call i32 @read_from_url(ptr noundef %71, ptr noundef %72, ptr noundef %73, i32 noundef %74)
  store i32 %75, ptr %4, align 4
  store i32 1, ptr %12, align 4
  br label %76

76:                                               ; preds = %70, %61, %60, %36
  call void @llvm.lifetime.end.p0(i64 8, ptr %11) #15
  call void @llvm.lifetime.end.p0(i64 4, ptr %10) #15
  call void @llvm.lifetime.end.p0(i64 8, ptr %9) #15
  call void @llvm.lifetime.end.p0(i64 8, ptr %8) #15
  %77 = load i32, ptr %4, align 4
  ret i32 %77
}