; Function Attrs: nounwind uwtable
define internal i32 @read_data_subtitle_segment(ptr noundef %0, ptr noundef %1, i32 noundef %2) #0 {
  %4 = getelementptr inbounds nuw i8, ptr %0, i64 4416
  %5 = load ptr, ptr %4, align 8, !tbaa !95
  %6 = getelementptr inbounds nuw i8, ptr %5, i64 24
  %7 = load ptr, ptr %6, align 8, !tbaa !13
  %8 = getelementptr inbounds nuw i8, ptr %0, i64 4528
  %9 = load i32, ptr %8, align 8, !tbaa !94
  %.not = icmp eq i32 %9, 0
  br i1 %.not, label %read_from_url.exit, label %10

10:                                               ; preds = %3
  %11 = getelementptr inbounds nuw i8, ptr %0, i64 4536
  %12 = load i64, ptr %11, align 8, !tbaa !88
  %13 = getelementptr inbounds nuw i8, ptr %0, i64 4488
  %14 = load i64, ptr %13, align 8, !tbaa !96
  %15 = sub nsw i64 %12, %14
  %16 = getelementptr inbounds nuw i8, ptr %0, i64 4512
  %17 = load i32, ptr %16, align 8, !tbaa !49
  %18 = sext i32 %17 to i64
  %.not22 = icmp slt i64 %15, %18
  br i1 %.not22, label %current_segment.exit, label %read_from_url.exit

current_segment.exit:                             ; preds = %10
  %19 = getelementptr inbounds nuw i8, ptr %0, i64 4520
  %20 = load ptr, ptr %19, align 8, !tbaa !70
  %21 = getelementptr inbounds ptr, ptr %20, i64 %15
  %22 = load ptr, ptr %21, align 8, !tbaa !71
  %23 = getelementptr inbounds nuw i8, ptr %0, i64 4384
  %24 = load ptr, ptr %23, align 8, !tbaa !102
  %.not23 = icmp eq ptr %24, null
  br i1 %.not23, label %25, label %36

25:                                               ; preds = %current_segment.exit
  %26 = tail call fastcc i32 @open_input(ptr noundef %7, ptr noundef nonnull %0, ptr noundef %22, ptr noundef nonnull %23)
  %27 = icmp slt i32 %26, 0
  br i1 %27, label %28, label %36

28:                                               ; preds = %25
  %29 = getelementptr inbounds nuw i8, ptr %7, i64 104
  %30 = load ptr, ptr %29, align 8, !tbaa !37
  %31 = tail call i32 @ff_check_interrupt(ptr noundef %30) #16
  %.not24 = icmp eq i32 %31, 0
  br i1 %.not24, label %32, label %read_from_url.exit

32:                                               ; preds = %28
  %33 = load ptr, ptr %4, align 8, !tbaa !95
  %34 = getelementptr inbounds nuw i8, ptr %0, i64 4424
  %35 = load i32, ptr %34, align 8, !tbaa !93
  tail call void (ptr, i32, ptr, ...) @av_log(ptr noundef %33, i32 noundef 24, ptr noundef nonnull @.str.168, i32 noundef %35) #16
  br label %read_from_url.exit

36:                                               ; preds = %25, %current_segment.exit
  %37 = getelementptr i8, ptr %22, i64 16
  %.val = load i64, ptr %37, align 8, !tbaa !235
  %38 = icmp sgt i64 %.val, -1
  br i1 %38, label %39, label %46

39:                                               ; preds = %36
  %40 = sext i32 %2 to i64
  %41 = getelementptr inbounds nuw i8, ptr %0, i64 4560
  %42 = load i64, ptr %41, align 8, !tbaa !106
  %43 = sub nsw i64 %.val, %42
  %44 = tail call i64 @llvm.smin.i64(i64 %43, i64 %40)
  %45 = trunc i64 %44 to i32
  br label %46

46:                                               ; preds = %39, %36
  %.0.i25 = phi i32 [ %45, %39 ], [ %2, %36 ]
  %47 = load ptr, ptr %23, align 8, !tbaa !102
  %48 = tail call i32 @avio_read(ptr noundef %47, ptr noundef %1, i32 noundef %.0.i25) #16
  %49 = icmp sgt i32 %48, 0
  br i1 %49, label %50, label %read_from_url.exit

50:                                               ; preds = %46
  %51 = zext nneg i32 %48 to i64
  %52 = getelementptr inbounds nuw i8, ptr %0, i64 4560
  %53 = load i64, ptr %52, align 8, !tbaa !106
  %54 = add nsw i64 %53, %51
  store i64 %54, ptr %52, align 8, !tbaa !106
  br label %read_from_url.exit

read_from_url.exit:                               ; preds = %50, %46, %28, %3, %10, %32
  %.0 = phi i32 [ %26, %32 ], [ -541478725, %10 ], [ -541478725, %3 ], [ -1414092869, %28 ], [ %48, %46 ], [ %48, %50 ]
  ret i32 %.0
}